; ModuleID = '46/229.c'
source_filename = "46/229.c"
target datalayout = "e-m:e-p270:32:32-p271:32:32-p272:64:64-i64:64-f80:128-n8:16:32:64-S128"
target triple = "x86_64-pc-linux-gnu"

@.str = private unnamed_addr constant [5 x i8] c"%d%d\00", align 1
@.str.1 = private unnamed_addr constant [3 x i8] c"%d\00", align 1
@matrix = common dso_local global [101 x [101 x i32]] zeroinitializer, align 16
@.str.2 = private unnamed_addr constant [4 x i8] c"%d\0A\00", align 1

; Function Attrs: noinline nounwind uwtable
define dso_local i32 @main() #0 {
  %1 = alloca i32, align 4
  %2 = alloca i32, align 4
  %3 = alloca i32, align 4
  %4 = alloca i32, align 4
  %5 = alloca i32, align 4
  store i32 0, i32* %1, align 4
  %6 = call i32 (i8*, ...) @__isoc99_scanf(i8* getelementptr inbounds ([5 x i8], [5 x i8]* @.str, i64 0, i64 0), i32* %2, i32* %3)
  store i32 1, i32* %4, align 4
  br label %7

7:                                                ; preds = %28, %0
  %8 = load i32, i32* %4, align 4
  %9 = load i32, i32* %2, align 4
  %10 = icmp sle i32 %8, %9
  br i1 %10, label %11, label %31

11:                                               ; preds = %7
  store i32 1, i32* %5, align 4
  br label %12

12:                                               ; preds = %24, %11
  %13 = load i32, i32* %5, align 4
  %14 = load i32, i32* %3, align 4
  %15 = icmp sle i32 %13, %14
  br i1 %15, label %16, label %27

16:                                               ; preds = %12
  %17 = load i32, i32* %4, align 4
  %18 = sext i32 %17 to i64
  %19 = getelementptr inbounds [101 x [101 x i32]], [101 x [101 x i32]]* @matrix, i64 0, i64 %18
  %20 = load i32, i32* %5, align 4
  %21 = sext i32 %20 to i64
  %22 = getelementptr inbounds [101 x i32], [101 x i32]* %19, i64 0, i64 %21
  %23 = call i32 (i8*, ...) @__isoc99_scanf(i8* getelementptr inbounds ([3 x i8], [3 x i8]* @.str.1, i64 0, i64 0), i32* %22)
  br label %24

24:                                               ; preds = %16
  %25 = load i32, i32* %5, align 4
  %26 = add nsw i32 %25, 1
  store i32 %26, i32* %5, align 4
  br label %12

27:                                               ; preds = %12
  br label %28

28:                                               ; preds = %27
  %29 = load i32, i32* %4, align 4
  %30 = add nsw i32 %29, 1
  store i32 %30, i32* %4, align 4
  br label %7

31:                                               ; preds = %7
  %32 = load i32, i32* %2, align 4
  %33 = load i32, i32* %3, align 4
  call void @transform(i32 %32, i32 %33)
  ret i32 0
}

declare dso_local i32 @__isoc99_scanf(i8*, ...) #1

; Function Attrs: noinline nounwind uwtable
define dso_local void @transform(i32 %0, i32 %1) #0 {
  %3 = alloca i32, align 4
  %4 = alloca i32, align 4
  %5 = alloca i32, align 4
  %6 = alloca i32, align 4
  %7 = alloca i32, align 4
  %8 = alloca i32, align 4
  %9 = alloca i32, align 4
  %10 = alloca [4 x i32], align 16
  store i32 %0, i32* %3, align 4
  store i32 %1, i32* %4, align 4
  %11 = load i32, i32* %3, align 4
  %12 = load i32, i32* %4, align 4
  %13 = mul nsw i32 %11, %12
  store i32 %13, i32* %5, align 4
  store i32 0, i32* %6, align 4
  store i32 0, i32* %7, align 4
  store i32 0, i32* %8, align 4
  store i32 0, i32* %9, align 4
  %14 = bitcast [4 x i32]* %10 to i8*
  call void @llvm.memset.p0i8.i64(i8* align 16 %14, i8 0, i64 16, i1 false)
  br label %15

15:                                               ; preds = %135, %2
  %16 = load i32, i32* %6, align 4
  %17 = load i32, i32* %5, align 4
  %18 = icmp slt i32 %16, %17
  br i1 %18, label %19, label %144

19:                                               ; preds = %15
  %20 = load i32, i32* %7, align 4
  switch i32 %20, label %110 [
    i32 0, label %21
    i32 1, label %47
    i32 2, label %69
    i32 3, label %90
  ]

21:                                               ; preds = %19
  %22 = load i32, i32* %8, align 4
  %23 = add nsw i32 %22, 1
  store i32 %23, i32* %8, align 4
  %24 = load i32, i32* %9, align 4
  %25 = add nsw i32 %24, 1
  store i32 %25, i32* %9, align 4
  br label %26

26:                                               ; preds = %33, %21
  %27 = load i32, i32* %9, align 4
  %28 = load i32, i32* %4, align 4
  %29 = getelementptr inbounds [4 x i32], [4 x i32]* %10, i64 0, i64 1
  %30 = load i32, i32* %29, align 4
  %31 = sub nsw i32 %28, %30
  %32 = icmp slt i32 %27, %31
  br i1 %32, label %33, label %46

33:                                               ; preds = %26
  %34 = load i32, i32* %8, align 4
  %35 = sext i32 %34 to i64
  %36 = getelementptr inbounds [101 x [101 x i32]], [101 x [101 x i32]]* @matrix, i64 0, i64 %35
  %37 = load i32, i32* %9, align 4
  %38 = sext i32 %37 to i64
  %39 = getelementptr inbounds [101 x i32], [101 x i32]* %36, i64 0, i64 %38
  %40 = load i32, i32* %39, align 4
  %41 = call i32 (i8*, ...) @printf(i8* getelementptr inbounds ([4 x i8], [4 x i8]* @.str.2, i64 0, i64 0), i32 %40)
  %42 = load i32, i32* %9, align 4
  %43 = add nsw i32 %42, 1
  store i32 %43, i32* %9, align 4
  %44 = load i32, i32* %6, align 4
  %45 = add nsw i32 %44, 1
  store i32 %45, i32* %6, align 4
  br label %26

46:                                               ; preds = %26
  br label %111

47:                                               ; preds = %19
  br label %48

48:                                               ; preds = %55, %47
  %49 = load i32, i32* %8, align 4
  %50 = load i32, i32* %3, align 4
  %51 = getelementptr inbounds [4 x i32], [4 x i32]* %10, i64 0, i64 2
  %52 = load i32, i32* %51, align 8
  %53 = sub nsw i32 %50, %52
  %54 = icmp slt i32 %49, %53
  br i1 %54, label %55, label %68

55:                                               ; preds = %48
  %56 = load i32, i32* %8, align 4
  %57 = sext i32 %56 to i64
  %58 = getelementptr inbounds [101 x [101 x i32]], [101 x [101 x i32]]* @matrix, i64 0, i64 %57
  %59 = load i32, i32* %9, align 4
  %60 = sext i32 %59 to i64
  %61 = getelementptr inbounds [101 x i32], [101 x i32]* %58, i64 0, i64 %60
  %62 = load i32, i32* %61, align 4
  %63 = call i32 (i8*, ...) @printf(i8* getelementptr inbounds ([4 x i8], [4 x i8]* @.str.2, i64 0, i64 0), i32 %62)
  %64 = load i32, i32* %8, align 4
  %65 = add nsw i32 %64, 1
  store i32 %65, i32* %8, align 4
  %66 = load i32, i32* %6, align 4
  %67 = add nsw i32 %66, 1
  store i32 %67, i32* %6, align 4
  br label %48

68:                                               ; preds = %48
  br label %111

69:                                               ; preds = %19
  br label %70

70:                                               ; preds = %76, %69
  %71 = load i32, i32* %9, align 4
  %72 = getelementptr inbounds [4 x i32], [4 x i32]* %10, i64 0, i64 3
  %73 = load i32, i32* %72, align 4
  %74 = add nsw i32 %73, 1
  %75 = icmp sgt i32 %71, %74
  br i1 %75, label %76, label %89

76:                                               ; preds = %70
  %77 = load i32, i32* %8, align 4
  %78 = sext i32 %77 to i64
  %79 = getelementptr inbounds [101 x [101 x i32]], [101 x [101 x i32]]* @matrix, i64 0, i64 %78
  %80 = load i32, i32* %9, align 4
  %81 = sext i32 %80 to i64
  %82 = getelementptr inbounds [101 x i32], [101 x i32]* %79, i64 0, i64 %81
  %83 = load i32, i32* %82, align 4
  %84 = call i32 (i8*, ...) @printf(i8* getelementptr inbounds ([4 x i8], [4 x i8]* @.str.2, i64 0, i64 0), i32 %83)
  %85 = load i32, i32* %9, align 4
  %86 = add nsw i32 %85, -1
  store i32 %86, i32* %9, align 4
  %87 = load i32, i32* %6, align 4
  %88 = add nsw i32 %87, 1
  store i32 %88, i32* %6, align 4
  br label %70

89:                                               ; preds = %70
  br label %111

90:                                               ; preds = %19
  br label %91

91:                                               ; preds = %96, %90
  %92 = load i32, i32* %8, align 4
  %93 = getelementptr inbounds [4 x i32], [4 x i32]* %10, i64 0, i64 0
  %94 = load i32, i32* %93, align 16
  %95 = icmp sgt i32 %92, %94
  br i1 %95, label %96, label %109

96:                                               ; preds = %91
  %97 = load i32, i32* %8, align 4
  %98 = sext i32 %97 to i64
  %99 = getelementptr inbounds [101 x [101 x i32]], [101 x [101 x i32]]* @matrix, i64 0, i64 %98
  %100 = load i32, i32* %9, align 4
  %101 = sext i32 %100 to i64
  %102 = getelementptr inbounds [101 x i32], [101 x i32]* %99, i64 0, i64 %101
  %103 = load i32, i32* %102, align 4
  %104 = call i32 (i8*, ...) @printf(i8* getelementptr inbounds ([4 x i8], [4 x i8]* @.str.2, i64 0, i64 0), i32 %103)
  %105 = load i32, i32* %8, align 4
  %106 = add nsw i32 %105, -1
  store i32 %106, i32* %8, align 4
  %107 = load i32, i32* %6, align 4
  %108 = add nsw i32 %107, 1
  store i32 %108, i32* %6, align 4
  br label %91

109:                                              ; preds = %91
  br label %111

110:                                              ; preds = %19
  br label %111

111:                                              ; preds = %110, %109, %89, %68, %46
  %112 = load i32, i32* %5, align 4
  %113 = load i32, i32* %6, align 4
  %114 = sub nsw i32 %112, %113
  %115 = icmp eq i32 %114, 1
  br i1 %115, label %116, label %135

116:                                              ; preds = %111
  %117 = load i32, i32* %7, align 4
  %118 = icmp eq i32 %117, 3
  br i1 %118, label %119, label %124

119:                                              ; preds = %116
  %120 = load i32, i32* %8, align 4
  %121 = add nsw i32 %120, 1
  store i32 %121, i32* %8, align 4
  %122 = load i32, i32* %9, align 4
  %123 = add nsw i32 %122, 1
  store i32 %123, i32* %9, align 4
  br label %124

124:                                              ; preds = %119, %116
  %125 = load i32, i32* %8, align 4
  %126 = sext i32 %125 to i64
  %127 = getelementptr inbounds [101 x [101 x i32]], [101 x [101 x i32]]* @matrix, i64 0, i64 %126
  %128 = load i32, i32* %9, align 4
  %129 = sext i32 %128 to i64
  %130 = getelementptr inbounds [101 x i32], [101 x i32]* %127, i64 0, i64 %129
  %131 = load i32, i32* %130, align 4
  %132 = call i32 (i8*, ...) @printf(i8* getelementptr inbounds ([4 x i8], [4 x i8]* @.str.2, i64 0, i64 0), i32 %131)
  %133 = load i32, i32* %6, align 4
  %134 = add nsw i32 %133, 1
  store i32 %134, i32* %6, align 4
  br label %135

135:                                              ; preds = %124, %111
  %136 = load i32, i32* %7, align 4
  %137 = sext i32 %136 to i64
  %138 = getelementptr inbounds [4 x i32], [4 x i32]* %10, i64 0, i64 %137
  %139 = load i32, i32* %138, align 4
  %140 = add nsw i32 %139, 1
  store i32 %140, i32* %138, align 4
  %141 = load i32, i32* %7, align 4
  %142 = add nsw i32 %141, 1
  %143 = srem i32 %142, 4
  store i32 %143, i32* %7, align 4
  br label %15

144:                                              ; preds = %15
  ret void
}

; Function Attrs: argmemonly nounwind willreturn
declare void @llvm.memset.p0i8.i64(i8* nocapture writeonly, i8, i64, i1 immarg) #2

declare dso_local i32 @printf(i8*, ...) #1


!llvm.module.flags = !{!0}
!llvm.ident = !{!1}

!0 = !{i32 1, !"wchar_size", i32 4}
!1 = !{!"clang version 10.0.0-4ubuntu1 "}
